target datalayout = "e-m:e-p270:32:32-p271:32:32-p272:64:64-i64:64-i128:128-f80:128-n8:16:32:64-S128"
target triple = "x86_64-pc-linux-gnu"

%struct.strbuf = type { i64, i64, ptr }

@.str = private unnamed_addr constant [2 x i8] c"-\00", align 1
@stdin = external global ptr, align 8
@.str.10 = private unnamed_addr constant [2 x i8] c"r\00", align 1
@.str.11 = private unnamed_addr constant [34 x i8] c"reading patches from stdin/tty...\00", align 1
@.str.12 = private unnamed_addr constant [20 x i8] c"cannot open mbox %s\00", align 1
@.str.13 = private unnamed_addr constant [17 x i8] c"empty mbox: '%s'\00", align 1
@sane_ctype = external constant [256 x i8], align 16
@buf = internal global %struct.strbuf { i64 0, i64 0, ptr @strbuf_slopbuf }, align 8
@.str.14 = private unnamed_addr constant [20 x i8] c"cannot read mbox %s\00", align 1
@.str.15 = private unnamed_addr constant [8 x i8] c"%s/%0*d\00", align 1
@.str.16 = private unnamed_addr constant [1 x i8] zeroinitializer, align 1
@git_gettext_enabled = external global i32, align 4

; Function Attrs: inlinehint nounwind uwtable
define internal i32 @const_error() #6 {
  ret i32 -1
}

; Function Attrs: inlinehint nounwind uwtable
define internal ptr @_(ptr noundef %0) #6 {
  %2 = alloca ptr, align 8
  %3 = alloca ptr, align 8
  store ptr %0, ptr %3, align 8, !tbaa !11
  %4 = load ptr, ptr %3, align 8, !tbaa !11
  %5 = load i8, ptr %4, align 1, !tbaa !15
  %6 = icmp ne i8 %5, 0
  br i1 %6, label %8, label %7

7:                                                ; preds = %1
  store ptr @.str.16, ptr %2, align 8
  br label %16

8:                                                ; preds = %1
  %9 = load i32, ptr @git_gettext_enabled, align 4, !tbaa !4
  %10 = icmp ne i32 %9, 0
  br i1 %10, label %13, label %11

11:                                               ; preds = %8
  %12 = load ptr, ptr %3, align 8, !tbaa !11
  store ptr %12, ptr %2, align 8
  br label %16

13:                                               ; preds = %8
  %14 = load ptr, ptr %3, align 8, !tbaa !11
  %15 = call ptr @dcgettext(ptr noundef null, ptr noundef %14, i32 noundef 5) #11
  store ptr %15, ptr %2, align 8
  br label %16

16:                                               ; preds = %13, %11, %7
  %17 = load ptr, ptr %2, align 8
  ret ptr %17
}

; Function Attrs: nounwind uwtable
define internal i32 @split_mbox(ptr noundef %0, ptr noundef %1, i32 noundef %2, i32 noundef %3, i32 noundef %4) #0 {
  %6 = alloca ptr, align 8
  %7 = alloca ptr, align 8
  %8 = alloca i32, align 4
  %9 = alloca i32, align 4
  %10 = alloca i32, align 4
  %11 = alloca i32, align 4
  %12 = alloca i32, align 4
  %13 = alloca ptr, align 8
  %14 = alloca i32, align 4
  %15 = alloca ptr, align 8
  store ptr %0, ptr %6, align 8, !tbaa !11
  store ptr %1, ptr %7, align 8, !tbaa !11
  store i32 %2, ptr %8, align 4, !tbaa !4
  store i32 %3, ptr %9, align 4, !tbaa !4
  store i32 %4, ptr %10, align 4, !tbaa !4
  call void @llvm.lifetime.start.p0(i64 4, ptr %11) #11
  store i32 -1, ptr %11, align 4, !tbaa !4
  call void @llvm.lifetime.start.p0(i64 4, ptr %12) #11
  call void @llvm.lifetime.start.p0(i64 8, ptr %13) #11
  %16 = load ptr, ptr %6, align 8, !tbaa !11
  %17 = call i32 @strcmp(ptr noundef %16, ptr noundef @.str) #13
  %18 = icmp ne i32 %17, 0
  br i1 %18, label %21, label %19

19:                                               ; preds = %5
  %20 = load ptr, ptr @stdin, align 8, !tbaa !23
  br label %24

21:                                               ; preds = %5
  %22 = load ptr, ptr %6, align 8, !tbaa !11
  %23 = call ptr @git_fopen(ptr noundef %22, ptr noundef @.str.10)
  br label %24

24:                                               ; preds = %21, %19
  %25 = phi ptr [ %20, %19 ], [ %23, %21 ]
  store ptr %25, ptr %13, align 8, !tbaa !23
  call void @llvm.lifetime.start.p0(i64 4, ptr %14) #11
  store i32 0, ptr %14, align 4, !tbaa !4
  %26 = load ptr, ptr %13, align 8, !tbaa !23
  %27 = call i32 @fileno(ptr noundef %26) #11
  %28 = call i32 @isatty(i32 noundef %27) #11
  %29 = icmp ne i32 %28, 0
  br i1 %29, label %30, label %32

30:                                               ; preds = %24
  %31 = call ptr @_(ptr noundef @.str.11)
  call void (ptr, ...) @warning(ptr noundef %31)
  br label %32

32:                                               ; preds = %30, %24
  %33 = load ptr, ptr %13, align 8, !tbaa !23
  %34 = icmp ne ptr %33, null
  br i1 %34, label %39, label %35

35:                                               ; preds = %32
  %36 = load ptr, ptr %6, align 8, !tbaa !11
  %37 = call i32 (ptr, ...) @error_errno(ptr noundef @.str.12, ptr noundef %36)
  %38 = call i32 @const_error()
  br label %110

39:                                               ; preds = %32
  br label %40

40:                                               ; preds = %60, %39
  %41 = load ptr, ptr %13, align 8, !tbaa !23
  %42 = call i32 @fgetc(ptr noundef %41)
  store i32 %42, ptr %12, align 4, !tbaa !4
  %43 = load i32, ptr %12, align 4, !tbaa !4
  %44 = icmp eq i32 %43, -1
  br i1 %44, label %45, label %59

45:                                               ; preds = %40
  %46 = load ptr, ptr %13, align 8, !tbaa !23
  %47 = load ptr, ptr @stdin, align 8, !tbaa !23
  %48 = icmp eq ptr %46, %47
  br i1 %48, label %49, label %51

49:                                               ; preds = %45
  %50 = load i32, ptr %10, align 4, !tbaa !4
  store i32 %50, ptr %11, align 4, !tbaa !4
  br label %58

51:                                               ; preds = %45
  %52 = load ptr, ptr %13, align 8, !tbaa !23
  %53 = call i32 @fclose(ptr noundef %52)
  %54 = call ptr @_(ptr noundef @.str.13)
  %55 = load ptr, ptr %6, align 8, !tbaa !11
  %56 = call i32 (ptr, ...) @error(ptr noundef %54, ptr noundef %55)
  %57 = call i32 @const_error()
  br label %58

58:                                               ; preds = %51, %49
  br label %110

59:                                               ; preds = %40
  br label %60

60:                                               ; preds = %59
  %61 = load i32, ptr %12, align 4, !tbaa !4
  %62 = trunc i32 %61 to i8
  %63 = zext i8 %62 to i64
  %64 = getelementptr inbounds nuw [256 x i8], ptr @sane_ctype, i64 0, i64 %63
  %65 = load i8, ptr %64, align 1, !tbaa !15
  %66 = zext i8 %65 to i32
  %67 = and i32 %66, 1
  %68 = icmp ne i32 %67, 0
  br i1 %68, label %40, label %69, !llvm.loop !25

69:                                               ; preds = %60
  %70 = load i32, ptr %12, align 4, !tbaa !4
  %71 = load ptr, ptr %13, align 8, !tbaa !23
  %72 = call i32 @ungetc(i32 noundef %70, ptr noundef %71)
  %73 = load ptr, ptr %13, align 8, !tbaa !23
  %74 = call i32 @strbuf_getwholeline(ptr noundef @buf, ptr noundef %73, i32 noundef 10)
  %75 = icmp ne i32 %74, 0
  br i1 %75, label %76, label %85

76:                                               ; preds = %69
  %77 = load ptr, ptr %13, align 8, !tbaa !23
  %78 = load ptr, ptr @stdin, align 8, !tbaa !23
  %79 = icmp ne ptr %77, %78
  br i1 %79, label %80, label %84

80:                                               ; preds = %76
  %81 = load ptr, ptr %6, align 8, !tbaa !11
  %82 = call i32 (ptr, ...) @error(ptr noundef @.str.14, ptr noundef %81)
  %83 = call i32 @const_error()
  br label %110

84:                                               ; preds = %76
  store i32 1, ptr %14, align 4, !tbaa !4
  br label %85

85:                                               ; preds = %84, %69
  br label %86

86:                                               ; preds = %90, %85
  %87 = load i32, ptr %14, align 4, !tbaa !4
  %88 = icmp ne i32 %87, 0
  %89 = xor i1 %88, true
  br i1 %89, label %90, label %101

90:                                               ; preds = %86
  call void @llvm.lifetime.start.p0(i64 8, ptr %15) #11
  %91 = load ptr, ptr %7, align 8, !tbaa !11
  %92 = load i32, ptr %9, align 4, !tbaa !4
  %93 = load i32, ptr %10, align 4, !tbaa !4
  %94 = add nsw i32 %93, 1
  store i32 %94, ptr %10, align 4, !tbaa !4
  %95 = call ptr (ptr, ...) @xstrfmt(ptr noundef @.str.15, ptr noundef %91, i32 noundef %92, i32 noundef %94)
  store ptr %95, ptr %15, align 8, !tbaa !11
  %96 = load ptr, ptr %13, align 8, !tbaa !23
  %97 = load ptr, ptr %15, align 8, !tbaa !11
  %98 = load i32, ptr %8, align 4, !tbaa !4
  %99 = call i32 @split_one(ptr noundef %96, ptr noundef %97, i32 noundef %98)
  store i32 %99, ptr %14, align 4, !tbaa !4
  %100 = load ptr, ptr %15, align 8, !tbaa !11
  call void @free(ptr noundef %100) #11
  call void @llvm.lifetime.end.p0(i64 8, ptr %15) #11
  br label %86, !llvm.loop !26

101:                                              ; preds = %86
  %102 = load ptr, ptr %13, align 8, !tbaa !23
  %103 = load ptr, ptr @stdin, align 8, !tbaa !23
  %104 = icmp ne ptr %102, %103
  br i1 %104, label %105, label %108

105:                                              ; preds = %101
  %106 = load ptr, ptr %13, align 8, !tbaa !23
  %107 = call i32 @fclose(ptr noundef %106)
  br label %108

108:                                              ; preds = %105, %101
  %109 = load i32, ptr %10, align 4, !tbaa !4
  store i32 %109, ptr %11, align 4, !tbaa !4
  br label %110

110:                                              ; preds = %108, %80, %58, %35
  %111 = load i32, ptr %11, align 4, !tbaa !4
  call void @llvm.lifetime.end.p0(i64 4, ptr %14) #11
  call void @llvm.lifetime.end.p0(i64 8, ptr %13) #11
  call void @llvm.lifetime.end.p0(i64 4, ptr %12) #11
  call void @llvm.lifetime.end.p0(i64 4, ptr %11) #11
  ret i32 %111
}