; Function Attrs: nounwind uwtable
define internal fastcc noundef i32 @split_mbox(ptr noundef nonnull %0, ptr noundef %1, i32 noundef range(i32 0, 2) %2, i32 noundef range(i32 3, 10) %3, i32 noundef %4) unnamed_addr #0 {
sub_0:
  %5 = load i8, ptr %0, align 1
  %.not46 = icmp eq i8 %5, 45
  br i1 %.not46, label %.tail, label %.tail.thread

.tail:                                            ; preds = %sub_0
  %6 = getelementptr inbounds nuw i8, ptr %0, i64 1
  %7 = load i8, ptr %6, align 1
  %8 = icmp eq i8 %7, 0
  br i1 %8, label %9, label %.tail.thread

9:                                                ; preds = %.tail
  %10 = load ptr, ptr @stdin, align 8, !tbaa !28
  br label %12

.tail.thread:                                     ; preds = %sub_0, %.tail
  %11 = tail call ptr @git_fopen(ptr noundef nonnull %0, ptr noundef nonnull @.str.10) #16
  br label %12

12:                                               ; preds = %.tail.thread, %9
  %13 = phi ptr [ %10, %9 ], [ %11, %.tail.thread ]
  %14 = tail call i32 @fileno(ptr noundef %13) #16
  %15 = tail call i32 @isatty(i32 noundef %14) #16
  %.not33 = icmp eq i32 %15, 0
  br i1 %.not33, label %20, label %16

16:                                               ; preds = %12
  %17 = load i32, ptr @git_gettext_enabled, align 4, !tbaa !20
  %.not4.i = icmp eq i32 %17, 0
  br i1 %.not4.i, label %_.exit, label %18

18:                                               ; preds = %16
  %19 = tail call ptr @dcgettext(ptr noundef null, ptr noundef nonnull @.str.11, i32 noundef 5) #16
  br label %_.exit

_.exit:                                           ; preds = %16, %18
  %.0.i = phi ptr [ %19, %18 ], [ @.str.11, %16 ]
  tail call void (ptr, ...) @warning(ptr noundef %.0.i) #16
  br label %20

20:                                               ; preds = %_.exit, %12
  %.not34 = icmp eq ptr %13, null
  br i1 %.not34, label %21, label %.preheader

21:                                               ; preds = %20
  %22 = tail call i32 (ptr, ...) @error_errno(ptr noundef nonnull @.str.12, ptr noundef nonnull %0) #16
  br label %53

.preheader:                                       ; preds = %20, %34
  %23 = tail call i32 @fgetc(ptr noundef nonnull %13)
  %24 = icmp eq i32 %23, -1
  br i1 %24, label %25, label %34

25:                                               ; preds = %.preheader
  %26 = load ptr, ptr @stdin, align 8, !tbaa !28
  %27 = icmp eq ptr %13, %26
  br i1 %27, label %53, label %28

28:                                               ; preds = %25
  %29 = tail call i32 @fclose(ptr noundef nonnull %13)
  %30 = load i32, ptr @git_gettext_enabled, align 4, !tbaa !20
  %.not4.i40 = icmp eq i32 %30, 0
  br i1 %.not4.i40, label %_.exit42, label %31

31:                                               ; preds = %28
  %32 = tail call ptr @dcgettext(ptr noundef null, ptr noundef nonnull @.str.13, i32 noundef 5) #16
  br label %_.exit42

_.exit42:                                         ; preds = %28, %31
  %.0.i41 = phi ptr [ %32, %31 ], [ @.str.13, %28 ]
  %33 = tail call i32 (ptr, ...) @error(ptr noundef %.0.i41, ptr noundef nonnull %0) #16
  br label %53

34:                                               ; preds = %.preheader
  %35 = and i32 %23, 255
  %36 = zext nneg i32 %35 to i64
  %37 = getelementptr inbounds nuw [256 x i8], ptr @sane_ctype, i64 0, i64 %36
  %38 = load i8, ptr %37, align 1, !tbaa !9
  %39 = and i8 %38, 1
  %.not35 = icmp eq i8 %39, 0
  br i1 %.not35, label %40, label %.preheader, !llvm.loop !30

40:                                               ; preds = %34
  %41 = tail call i32 @ungetc(i32 noundef %23, ptr noundef nonnull %13)
  %42 = tail call i32 @strbuf_getwholeline(ptr noundef nonnull @buf, ptr noundef nonnull %13, i32 noundef 10) #16
  %.not36 = icmp eq i32 %42, 0
  br i1 %.not36, label %.lr.ph, label %43

43:                                               ; preds = %40
  %44 = load ptr, ptr @stdin, align 8, !tbaa !28
  %.not37 = icmp eq ptr %13, %44
  br i1 %.not37, label %._crit_edge, label %45

45:                                               ; preds = %43
  %46 = tail call i32 (ptr, ...) @error(ptr noundef nonnull @.str.14, ptr noundef nonnull %0) #16
  br label %53

.lr.ph:                                           ; preds = %40, %.lr.ph
  %.045 = phi i32 [ %47, %.lr.ph ], [ %4, %40 ]
  %47 = add nsw i32 %.045, 1
  %48 = tail call ptr (ptr, ...) @xstrfmt(ptr noundef nonnull @.str.15, ptr noundef %1, i32 noundef %3, i32 noundef %47) #16
  %49 = tail call fastcc i32 @split_one(ptr noundef nonnull %13, ptr noundef %48, i32 noundef %2)
  tail call void @free(ptr noundef %48) #16
  %.not38 = icmp eq i32 %49, 0
  br i1 %.not38, label %.lr.ph, label %._crit_edge, !llvm.loop !31

._crit_edge:                                      ; preds = %.lr.ph, %43
  %.0.lcssa = phi i32 [ %4, %43 ], [ %47, %.lr.ph ]
  %50 = load ptr, ptr @stdin, align 8, !tbaa !28
  %.not39 = icmp eq ptr %13, %50
  br i1 %.not39, label %53, label %51

51:                                               ; preds = %._crit_edge
  %52 = tail call i32 @fclose(ptr noundef nonnull %13)
  br label %53

53:                                               ; preds = %._crit_edge, %51, %25, %_.exit42, %45, %21
  %.029 = phi i32 [ -1, %_.exit42 ], [ -1, %45 ], [ -1, %21 ], [ %4, %25 ], [ %.0.lcssa, %51 ], [ %.0.lcssa, %._crit_edge ]
  ret i32 %.029
}